; Function Attrs: nounwind uwtable
define internal void @touch_handler_motion(ptr noundef readonly captures(address) %0, ptr noundef %1, i32 noundef %2, i32 noundef %3, i32 noundef %4, i32 noundef %5) #0 {
  %7 = sext i32 %3 to i64
  %8 = getelementptr inbounds nuw i8, ptr %0, i64 472
  %9 = getelementptr inbounds nuw i8, ptr %0, i64 480
  %.pn15.i = load ptr, ptr %9, align 8
  %.not16.i = icmp eq ptr %.pn15.i, %8
  br i1 %.not16.i, label %Wayland_SeatUpdateTouch.exit.thread, label %.lr.ph.i

.lr.ph.i:                                         ; preds = %6, %12
  %.pn17.i = phi ptr [ %.pn.i, %12 ], [ %.pn15.i, %6 ]
  %.0.i = getelementptr inbounds i8, ptr %.pn17.i, i64 -24
  %10 = load i64, ptr %.0.i, align 8
  %11 = icmp eq i64 %10, %7
  br i1 %11, label %Wayland_SeatUpdateTouch.exit, label %12

12:                                               ; preds = %.lr.ph.i
  %13 = getelementptr inbounds nuw i8, ptr %.pn17.i, i64 8
  %.pn.i = load ptr, ptr %13, align 8
  %.not.i = icmp eq ptr %.pn.i, %8
  br i1 %.not.i, label %Wayland_SeatUpdateTouch.exit.thread, label %.lr.ph.i, !llvm.loop !31

Wayland_SeatUpdateTouch.exit:                     ; preds = %.lr.ph.i
  %14 = getelementptr inbounds i8, ptr %.pn17.i, i64 -16
  store i32 %4, ptr %14, align 8
  %15 = getelementptr inbounds i8, ptr %.pn17.i, i64 -12
  store i32 %5, ptr %15, align 4
  %16 = getelementptr inbounds i8, ptr %.pn17.i, i64 -8
  %17 = load ptr, ptr %16, align 8
  %.not = icmp eq ptr %17, null
  br i1 %.not, label %Wayland_SeatUpdateTouch.exit.thread, label %18

18:                                               ; preds = %Wayland_SeatUpdateTouch.exit
  %19 = load ptr, ptr @WAYLAND_wl_proxy_get_user_data, align 8
  %20 = tail call ptr %19(ptr noundef nonnull %17) #12
  %.not17 = icmp eq ptr %20, null
  br i1 %.not17, label %Wayland_SeatUpdateTouch.exit.thread, label %21

21:                                               ; preds = %18
  %22 = sext i32 %4 to i64
  %23 = add nsw i64 %22, 4807592602218004480
  %24 = bitcast i64 %23 to double
  %25 = fadd double %24, 0xC2B8000000000000
  %26 = fptrunc double %25 to float
  %27 = getelementptr inbounds nuw i8, ptr %20, i64 312
  %28 = load i32, ptr %27, align 8
  %29 = sitofp i32 %28 to float
  %30 = fdiv float %26, %29
  %31 = sext i32 %5 to i64
  %32 = add nsw i64 %31, 4807592602218004480
  %33 = bitcast i64 %32 to double
  %34 = fadd double %33, 0xC2B8000000000000
  %35 = fptrunc double %34 to float
  %36 = getelementptr inbounds nuw i8, ptr %20, i64 316
  %37 = load i32, ptr %36, align 4
  %38 = sitofp i32 %37 to float
  %39 = fdiv float %35, %38
  %40 = load i32, ptr @Wayland_EventTimestampMSToNS.last, align 4
  %41 = icmp ult i32 %2, %40
  %.pre.i.i = load i64, ptr @Wayland_EventTimestampMSToNS.timestamp_offset, align 8
  br i1 %41, label %42, label %Wayland_EventTimestampMSToNS.exit.i

42:                                               ; preds = %21
  %43 = add i64 %.pre.i.i, 4294967296000000
  store i64 %43, ptr @Wayland_EventTimestampMSToNS.timestamp_offset, align 8
  br label %Wayland_EventTimestampMSToNS.exit.i

Wayland_EventTimestampMSToNS.exit.i:              ; preds = %42, %21
  %44 = phi i64 [ %43, %42 ], [ %.pre.i.i, %21 ]
  store i32 %2, ptr @Wayland_EventTimestampMSToNS.last, align 4
  %45 = zext i32 %2 to i64
  %46 = mul nuw nsw i64 %45, 1000000
  %47 = add i64 %44, %46
  %48 = getelementptr inbounds nuw i8, ptr %0, i64 456
  %49 = load ptr, ptr %48, align 8
  %.not.i18 = icmp eq ptr %49, null
  br i1 %.not.i18, label %53, label %50

50:                                               ; preds = %Wayland_EventTimestampMSToNS.exit.i
  %51 = getelementptr inbounds nuw i8, ptr %0, i64 464
  %52 = load i64, ptr %51, align 8
  br label %53

53:                                               ; preds = %50, %Wayland_EventTimestampMSToNS.exit.i
  %54 = phi i64 [ %52, %50 ], [ %47, %Wayland_EventTimestampMSToNS.exit.i ]
  %55 = tail call i64 @SDL_GetTicksNS_REAL() #12
  %56 = load i64, ptr @Wayland_AdjustEventTimestampBase.timestamp_offset, align 8
  %.not.not.i.i = icmp eq i64 %56, 0
  %57 = sub i64 %55, %54
  %58 = select i1 %.not.not.i.i, i64 %57, i64 %56
  %59 = add i64 %58, %54
  %.not.i.i = icmp ugt i64 %59, %55
  %60 = or i1 %.not.not.i.i, %.not.i.i
  br i1 %60, label %61, label %Wayland_GetTouchTimestamp.exit

61:                                               ; preds = %53
  %simplifycfg.merge.i.i = select i1 %.not.i.i, i64 %57, i64 %58
  store i64 %simplifycfg.merge.i.i, ptr @Wayland_AdjustEventTimestampBase.timestamp_offset, align 8
  br label %Wayland_GetTouchTimestamp.exit

Wayland_GetTouchTimestamp.exit:                   ; preds = %53, %61
  %.0.i.i = tail call i64 @llvm.umin.i64(i64 %59, i64 %55)
  %62 = ptrtoint ptr %1 to i64
  %63 = add nsw i32 %3, 1
  %64 = sext i32 %63 to i64
  %65 = load ptr, ptr %20, align 8
  tail call void @SDL_SendTouchMotion(i64 noundef %.0.i.i, i64 noundef %62, i64 noundef %64, ptr noundef %65, float noundef %30, float noundef %39, float noundef 1.000000e+00) #12
  br label %Wayland_SeatUpdateTouch.exit.thread

Wayland_SeatUpdateTouch.exit.thread:              ; preds = %12, %6, %18, %Wayland_GetTouchTimestamp.exit, %Wayland_SeatUpdateTouch.exit
  ret void
}